target datalayout = "e-m:e-p270:32:32-p271:32:32-p272:64:64-i64:64-i128:128-f80:128-n8:16:32:64-S128"
target triple = "x86_64-pc-linux-gnu"

%struct.AVPacket = type { ptr, i64, i64, ptr, i32, i32, i32, ptr, i32, i64, i64, ptr, ptr, %struct.AVRational }
%struct.AVRational = type { i32, i32 }
%struct.MpegTSContext = type { ptr, ptr, i32, i64, i32, i32, i32, i64, i64, i32, ptr, i64, i32, i32, i32, i32, i32, i32, i32, i32, i32, ptr, [8192 x i8], [8192 x ptr], i32, ptr, [32 x ptr] }
%struct.MpegTSFilter = type { i32, i32, i32, i64, i32, i32, %union.anon.0 }
%union.anon.0 = type { %struct.MpegTSSectionFilter }
%struct.MpegTSSectionFilter = type { i32, i32, i32, i32, i32, ptr, i8, ptr, ptr }
%struct.SLConfigDescr = type { i32, i32, i32, i32, i32, i32, i32, i32, i32, i32, i32, i32, i32, i32 }
%struct.MpegTSPESFilter = type { ptr, ptr }
%struct.PESContext = type { i32, i32, i32, ptr, ptr, ptr, ptr, i32, i32, i32, i32, i32, i32, i8, i64, i64, i64, [264 x i8], ptr, %struct.SLConfigDescr, i32 }
%struct.AVFormatContext = type { ptr, ptr, ptr, ptr, ptr, i32, i32, ptr, i32, ptr, i32, ptr, ptr, i64, i64, i64, i32, i32, i32, i64, i64, ptr, i32, i32, ptr, i32, i32, i32, i32, ptr, i64, i32, i32, %struct.AVIOInterruptCB, i32, i32, i32, i32, i64, i32, i32, i32, i32, i32, i32, i32, i32, i32, i32, i32, i32, i64, i32, i32, i32, i32, i32, ptr, ptr, ptr, ptr, i32, ptr, ptr, ptr, ptr, i32, ptr, ptr, i64, ptr, ptr, ptr, i64 }
%struct.AVIOInterruptCB = type { ptr, ptr }

; Function Attrs: nounwind uwtable
define internal i32 @mpegts_read_packet(ptr noundef %0, ptr noundef %1) #0 {
  %3 = alloca i32, align 4
  %4 = alloca ptr, align 8
  %5 = alloca ptr, align 8
  %6 = alloca ptr, align 8
  %7 = alloca i32, align 4
  %8 = alloca i32, align 4
  %9 = alloca ptr, align 8
  %10 = alloca i32, align 4
  store ptr %0, ptr %4, align 8, !tbaa !4
  store ptr %1, ptr %5, align 8, !tbaa !164
  call void @llvm.lifetime.start.p0(i64 8, ptr %6) #12
  %11 = load ptr, ptr %4, align 8, !tbaa !4
  %12 = getelementptr inbounds nuw %struct.AVFormatContext, ptr %11, i32 0, i32 3
  %13 = load ptr, ptr %12, align 8, !tbaa !181
  store ptr %13, ptr %6, align 8, !tbaa !20
  call void @llvm.lifetime.start.p0(i64 4, ptr %7) #12
  call void @llvm.lifetime.start.p0(i64 4, ptr %8) #12
  %14 = load ptr, ptr %5, align 8, !tbaa !164
  %15 = getelementptr inbounds nuw %struct.AVPacket, ptr %14, i32 0, i32 4
  store i32 -1, ptr %15, align 8, !tbaa !192
  %16 = load ptr, ptr %5, align 8, !tbaa !164
  %17 = load ptr, ptr %6, align 8, !tbaa !20
  %18 = getelementptr inbounds nuw %struct.MpegTSContext, ptr %17, i32 0, i32 10
  store ptr %16, ptr %18, align 8, !tbaa !160
  %19 = load ptr, ptr %6, align 8, !tbaa !20
  %20 = call i32 @handle_packets(ptr noundef %19, i64 noundef 0)
  store i32 %20, ptr %7, align 4, !tbaa !11
  %21 = load i32, ptr %7, align 4, !tbaa !11
  %22 = icmp slt i32 %21, 0
  br i1 %22, label %23, label %87

23:                                               ; preds = %2
  %24 = load ptr, ptr %6, align 8, !tbaa !20
  %25 = getelementptr inbounds nuw %struct.MpegTSContext, ptr %24, i32 0, i32 10
  %26 = load ptr, ptr %25, align 8, !tbaa !160
  call void @av_packet_unref(ptr noundef %26)
  store i32 0, ptr %8, align 4, !tbaa !11
  br label %27

27:                                               ; preds = %83, %23
  %28 = load i32, ptr %8, align 4, !tbaa !11
  %29 = icmp slt i32 %28, 8192
  br i1 %29, label %30, label %86

30:                                               ; preds = %27
  %31 = load ptr, ptr %6, align 8, !tbaa !20
  %32 = getelementptr inbounds nuw %struct.MpegTSContext, ptr %31, i32 0, i32 23
  %33 = load i32, ptr %8, align 4, !tbaa !11
  %34 = sext i32 %33 to i64
  %35 = getelementptr inbounds [8192 x ptr], ptr %32, i64 0, i64 %34
  %36 = load ptr, ptr %35, align 8, !tbaa !50
  %37 = icmp ne ptr %36, null
  br i1 %37, label %38, label %82

38:                                               ; preds = %30
  %39 = load ptr, ptr %6, align 8, !tbaa !20
  %40 = getelementptr inbounds nuw %struct.MpegTSContext, ptr %39, i32 0, i32 23
  %41 = load i32, ptr %8, align 4, !tbaa !11
  %42 = sext i32 %41 to i64
  %43 = getelementptr inbounds [8192 x ptr], ptr %40, i64 0, i64 %42
  %44 = load ptr, ptr %43, align 8, !tbaa !50
  %45 = getelementptr inbounds nuw %struct.MpegTSFilter, ptr %44, i32 0, i32 5
  %46 = load i32, ptr %45, align 4, !tbaa !109
  %47 = icmp eq i32 %46, 0
  br i1 %47, label %48, label %82

48:                                               ; preds = %38
  call void @llvm.lifetime.start.p0(i64 8, ptr %9) #12
  %49 = load ptr, ptr %6, align 8, !tbaa !20
  %50 = getelementptr inbounds nuw %struct.MpegTSContext, ptr %49, i32 0, i32 23
  %51 = load i32, ptr %8, align 4, !tbaa !11
  %52 = sext i32 %51 to i64
  %53 = getelementptr inbounds [8192 x ptr], ptr %50, i64 0, i64 %52
  %54 = load ptr, ptr %53, align 8, !tbaa !50
  %55 = getelementptr inbounds nuw %struct.MpegTSFilter, ptr %54, i32 0, i32 6
  %56 = getelementptr inbounds nuw %struct.MpegTSPESFilter, ptr %55, i32 0, i32 1
  %57 = load ptr, ptr %56, align 8, !tbaa !66
  store ptr %57, ptr %9, align 8, !tbaa !110
  %58 = load ptr, ptr %9, align 8, !tbaa !110
  %59 = getelementptr inbounds nuw %struct.PESContext, ptr %58, i32 0, i32 7
  %60 = load i32, ptr %59, align 8, !tbaa !193
  %61 = icmp eq i32 %60, 3
  br i1 %61, label %62, label %78

62:                                               ; preds = %48
  %63 = load ptr, ptr %9, align 8, !tbaa !110
  %64 = getelementptr inbounds nuw %struct.PESContext, ptr %63, i32 0, i32 8
  %65 = load i32, ptr %64, align 4, !tbaa !194
  %66 = icmp sgt i32 %65, 0
  br i1 %66, label %67, label %78

67:                                               ; preds = %62
  %68 = load ptr, ptr %9, align 8, !tbaa !110
  %69 = load ptr, ptr %5, align 8, !tbaa !164
  %70 = call i32 @new_pes_packet(ptr noundef %68, ptr noundef %69)
  store i32 %70, ptr %7, align 4, !tbaa !11
  %71 = load i32, ptr %7, align 4, !tbaa !11
  %72 = icmp slt i32 %71, 0
  br i1 %72, label %73, label %75

73:                                               ; preds = %67
  %74 = load i32, ptr %7, align 4, !tbaa !11
  store i32 %74, ptr %3, align 4
  store i32 1, ptr %10, align 4
  br label %79

75:                                               ; preds = %67
  %76 = load ptr, ptr %9, align 8, !tbaa !110
  %77 = getelementptr inbounds nuw %struct.PESContext, ptr %76, i32 0, i32 7
  store i32 4, ptr %77, align 8, !tbaa !193
  store i32 0, ptr %7, align 4, !tbaa !11
  store i32 2, ptr %10, align 4
  br label %79

78:                                               ; preds = %62, %48
  store i32 0, ptr %10, align 4
  br label %79

79:                                               ; preds = %78, %75, %73
  call void @llvm.lifetime.end.p0(i64 8, ptr %9) #12
  %80 = load i32, ptr %10, align 4
  switch i32 %80, label %98 [
    i32 0, label %81
    i32 2, label %86
  ]

81:                                               ; preds = %79
  br label %82

82:                                               ; preds = %81, %38, %30
  br label %83

83:                                               ; preds = %82
  %84 = load i32, ptr %8, align 4, !tbaa !11
  %85 = add nsw i32 %84, 1
  store i32 %85, ptr %8, align 4, !tbaa !11
  br label %27, !llvm.loop !195

86:                                               ; preds = %79, %27
  br label %87

87:                                               ; preds = %86, %2
  %88 = load i32, ptr %7, align 4, !tbaa !11
  %89 = icmp ne i32 %88, 0
  br i1 %89, label %96, label %90

90:                                               ; preds = %87
  %91 = load ptr, ptr %5, align 8, !tbaa !164
  %92 = getelementptr inbounds nuw %struct.AVPacket, ptr %91, i32 0, i32 4
  %93 = load i32, ptr %92, align 8, !tbaa !192
  %94 = icmp slt i32 %93, 0
  br i1 %94, label %95, label %96

95:                                               ; preds = %90
  store i32 -1094995529, ptr %7, align 4, !tbaa !11
  br label %96

96:                                               ; preds = %95, %90, %87
  %97 = load i32, ptr %7, align 4, !tbaa !11
  store i32 %97, ptr %3, align 4
  store i32 1, ptr %10, align 4
  br label %98

98:                                               ; preds = %96, %79
  call void @llvm.lifetime.end.p0(i64 4, ptr %8) #12
  call void @llvm.lifetime.end.p0(i64 4, ptr %7) #12
  call void @llvm.lifetime.end.p0(i64 8, ptr %6) #12
  %99 = load i32, ptr %3, align 4
  ret i32 %99
}