; Function Attrs: nounwind uwtable
define internal range(i32 189, 188) i32 @mpegts_read_packet(ptr noundef readonly captures(none) %0, ptr noundef initializes((32, 36)) %1) #0 {
  %3 = getelementptr inbounds nuw i8, ptr %0, i64 24
  %4 = load ptr, ptr %3, align 8, !tbaa !188
  %5 = getelementptr inbounds nuw i8, ptr %1, i64 32
  store i32 -1, ptr %5, align 8, !tbaa !157
  %6 = getelementptr inbounds nuw i8, ptr %4, i64 72
  store ptr %1, ptr %6, align 8, !tbaa !155
  %7 = tail call fastcc i32 @handle_packets(ptr noundef %4, i64 noundef 0)
  %8 = icmp slt i32 %7, 0
  br i1 %8, label %9, label %33

9:                                                ; preds = %2
  %10 = load ptr, ptr %6, align 8, !tbaa !155
  tail call void @av_packet_unref(ptr noundef %10) #12
  %11 = getelementptr inbounds nuw i8, ptr %4, i64 8328
  br label %12

12:                                               ; preds = %9, %.thread
  %indvars.iv = phi i64 [ 0, %9 ], [ %indvars.iv.next, %.thread ]
  %13 = getelementptr inbounds nuw [8192 x ptr], ptr %11, i64 0, i64 %indvars.iv
  %14 = load ptr, ptr %13, align 8, !tbaa !46
  %.not = icmp eq ptr %14, null
  br i1 %.not, label %.thread, label %15

15:                                               ; preds = %12
  %16 = getelementptr inbounds nuw i8, ptr %14, i64 28
  %17 = load i32, ptr %16, align 4, !tbaa !62
  %18 = icmp eq i32 %17, 0
  br i1 %18, label %19, label %.thread

19:                                               ; preds = %15
  %20 = getelementptr inbounds nuw i8, ptr %14, i64 40
  %21 = load ptr, ptr %20, align 8, !tbaa !9
  %22 = getelementptr inbounds nuw i8, ptr %21, i64 48
  %23 = load i32, ptr %22, align 8, !tbaa !165
  %24 = icmp eq i32 %23, 3
  br i1 %24, label %25, label %.thread

25:                                               ; preds = %19
  %26 = getelementptr inbounds nuw i8, ptr %21, i64 52
  %27 = load i32, ptr %26, align 4, !tbaa !199
  %28 = icmp sgt i32 %27, 0
  br i1 %28, label %29, label %.thread

29:                                               ; preds = %25
  %30 = tail call fastcc i32 @new_pes_packet(ptr noundef nonnull %21, ptr noundef %1)
  %31 = icmp slt i32 %30, 0
  br i1 %31, label %.thread47, label %.thread44

.thread44:                                        ; preds = %29
  %32 = getelementptr inbounds nuw i8, ptr %21, i64 48
  store i32 4, ptr %32, align 8, !tbaa !165
  br label %34

.thread:                                          ; preds = %19, %25, %12, %15
  %indvars.iv.next = add nuw nsw i64 %indvars.iv, 1
  %exitcond.not = icmp eq i64 %indvars.iv.next, 8192
  br i1 %exitcond.not, label %.thread47, label %12, !llvm.loop !200

33:                                               ; preds = %2
  %.not36 = icmp eq i32 %7, 0
  br i1 %.not36, label %34, label %.thread47

34:                                               ; preds = %.thread44, %33
  %35 = load i32, ptr %5, align 8, !tbaa !157
  %36 = icmp slt i32 %35, 0
  %spec.select = select i1 %36, i32 -1094995529, i32 0
  br label %.thread47

.thread47:                                        ; preds = %.thread, %29, %34, %33
  %.2 = phi i32 [ %7, %33 ], [ %spec.select, %34 ], [ %30, %29 ], [ %7, %.thread ]
  ret i32 %.2
}